; Function Attrs: mustprogress nounwind uwtable
define dso_local noundef nonnull align 8 dereferenceable(8) ptr @_ZN4nodelsERSoRKSt6vectorINS_8builtins13CodeCacheInfoESaIS3_EE(ptr noundef nonnull returned align 8 dereferenceable(8) %output, ptr nocapture noundef nonnull readonly align 8 dereferenceable(24) %vec) local_unnamed_addr #3 {
entry:
  %call = tail call noundef nonnull align 8 dereferenceable(8) ptr @_ZStlsISt11char_traitsIcEERSt13basic_ostreamIcT_ES5_PKc(ptr noundef nonnull align 8 dereferenceable(8) %output, ptr noundef nonnull @.str.3) #23
  %0 = load ptr, ptr %vec, align 8
  %_M_finish.i = getelementptr inbounds i8, ptr %vec, i64 8
  %1 = load ptr, ptr %_M_finish.i, align 8
  %cmp.i.not7 = icmp eq ptr %0, %1
  br i1 %cmp.i.not7, label %for.end, label %for.body

for.body:                                         ; preds = %entry, %for.body
  %__begin1.sroa.0.08 = phi ptr [ %incdec.ptr.i, %for.body ], [ %0, %entry ]
  %call.i = tail call noundef nonnull align 8 dereferenceable(8) ptr @_ZStlsISt11char_traitsIcEERSt13basic_ostreamIcT_ES5_PKc(ptr noundef nonnull align 8 dereferenceable(8) %output, ptr noundef nonnull @.str) #23
  %call1.i = tail call noundef nonnull align 8 dereferenceable(8) ptr @_ZStlsIcSt11char_traitsIcESaIcEERSt13basic_ostreamIT_T0_ES7_RKNSt7__cxx1112basic_stringIS4_S5_T1_EE(ptr noundef nonnull align 8 dereferenceable(8) %call.i, ptr noundef nonnull align 8 dereferenceable(32) %__begin1.sroa.0.08) #23
  %call2.i = tail call noundef nonnull align 8 dereferenceable(8) ptr @_ZStlsISt11char_traitsIcEERSt13basic_ostreamIcT_ES5_PKc(ptr noundef nonnull align 8 dereferenceable(8) %call1.i, ptr noundef nonnull @.str.1) #23
  %length.i = getelementptr inbounds i8, ptr %__begin1.sroa.0.08, i64 40
  %2 = load i64, ptr %length.i, align 8
  %call3.i = tail call noundef nonnull align 8 dereferenceable(8) ptr @_ZNSolsEm(ptr noundef nonnull align 8 dereferenceable(8) %call2.i, i64 noundef %2) #23
  %call4.i = tail call noundef nonnull align 8 dereferenceable(8) ptr @_ZStlsISt11char_traitsIcEERSt13basic_ostreamIcT_ES5_PKc(ptr noundef nonnull align 8 dereferenceable(8) %call3.i, ptr noundef nonnull @.str.2) #23
  %incdec.ptr.i = getelementptr inbounds i8, ptr %__begin1.sroa.0.08, i64 64
  %cmp.i.not = icmp eq ptr %incdec.ptr.i, %1
  br i1 %cmp.i.not, label %for.end, label %for.body

for.end:                                          ; preds = %for.body, %entry
  %call8 = tail call noundef nonnull align 8 dereferenceable(8) ptr @_ZStlsISt11char_traitsIcEERSt13basic_ostreamIcT_ES5_PKc(ptr noundef nonnull align 8 dereferenceable(8) %output, ptr noundef nonnull @.str.4) #23
  ret ptr %output
}